target datalayout = "e-m:e-p270:32:32-p271:32:32-p272:64:64-i64:64-i128:128-f80:128-n8:16:32:64-S128"
target triple = "x86_64-pc-linux-gnu"

%struct.jpeg_compress_struct = type { ptr, ptr, ptr, ptr, i32, i32, ptr, i32, i32, i32, i32, double, i32, i32, i32, ptr, [4 x ptr], [4 x ptr], [4 x ptr], [16 x i8], [16 x i8], [16 x i8], i32, ptr, i32, i32, i32, i32, i32, i32, i32, i32, i32, i8, i8, i8, i16, i16, i32, i32, i32, i32, i32, i32, i32, [4 x ptr], i32, i32, i32, [10 x i32], i32, i32, i32, i32, ptr, ptr, ptr, ptr, ptr, ptr, ptr, ptr, ptr, ptr, i32 }
%struct.jpeg_component_info = type { i32, i32, i32, i32, i32, i32, i32, i32, i32, i32, i32, i32, i32, i32, i32, i32, i32, i32, i32, ptr, ptr }
%struct.jpeg_error_mgr = type { ptr, ptr, ptr, ptr, ptr, i32, %union.anon, i32, i64, ptr, i32, ptr, i32, i32 }
%union.anon = type { [8 x i32], [48 x i8] }
%struct.jpeg_destination_mgr = type { ptr, i64, ptr, ptr, ptr }

; Function Attrs: nounwind uwtable
define internal void @emit_byte(ptr noundef %0, i32 noundef %1) #0 {
  %3 = alloca ptr, align 8
  %4 = alloca i32, align 4
  %5 = alloca ptr, align 8
  store ptr %0, ptr %3, align 8
  store i32 %1, ptr %4, align 4
  %6 = load ptr, ptr %3, align 8
  %7 = getelementptr inbounds %struct.jpeg_compress_struct, ptr %6, i32 0, i32 6
  %8 = load ptr, ptr %7, align 8
  store ptr %8, ptr %5, align 8
  %9 = load i32, ptr %4, align 4
  %10 = trunc i32 %9 to i8
  %11 = load ptr, ptr %5, align 8
  %12 = getelementptr inbounds %struct.jpeg_destination_mgr, ptr %11, i32 0, i32 0
  %13 = load ptr, ptr %12, align 8
  %14 = getelementptr inbounds i8, ptr %13, i32 1
  store ptr %14, ptr %12, align 8
  store i8 %10, ptr %13, align 1
  %15 = load ptr, ptr %5, align 8
  %16 = getelementptr inbounds %struct.jpeg_destination_mgr, ptr %15, i32 0, i32 1
  %17 = load i64, ptr %16, align 8
  %18 = add i64 %17, -1
  store i64 %18, ptr %16, align 8
  %19 = icmp eq i64 %18, 0
  br i1 %19, label %20, label %39

20:                                               ; preds = %2
  %21 = load ptr, ptr %5, align 8
  %22 = getelementptr inbounds %struct.jpeg_destination_mgr, ptr %21, i32 0, i32 3
  %23 = load ptr, ptr %22, align 8
  %24 = load ptr, ptr %3, align 8
  %25 = call i32 %23(ptr noundef %24)
  %26 = icmp ne i32 %25, 0
  br i1 %26, label %38, label %27

27:                                               ; preds = %20
  %28 = load ptr, ptr %3, align 8
  %29 = getelementptr inbounds %struct.jpeg_compress_struct, ptr %28, i32 0, i32 0
  %30 = load ptr, ptr %29, align 8
  %31 = getelementptr inbounds %struct.jpeg_error_mgr, ptr %30, i32 0, i32 5
  store i32 24, ptr %31, align 8
  %32 = load ptr, ptr %3, align 8
  %33 = getelementptr inbounds %struct.jpeg_compress_struct, ptr %32, i32 0, i32 0
  %34 = load ptr, ptr %33, align 8
  %35 = getelementptr inbounds %struct.jpeg_error_mgr, ptr %34, i32 0, i32 0
  %36 = load ptr, ptr %35, align 8
  %37 = load ptr, ptr %3, align 8
  call void %36(ptr noundef %37)
  br label %38

38:                                               ; preds = %27, %20
  br label %39

39:                                               ; preds = %38, %2
  ret void
}

; Function Attrs: nounwind uwtable
define internal void @emit_marker(ptr noundef %0, i32 noundef %1) #0 {
  %3 = alloca ptr, align 8
  %4 = alloca i32, align 4
  store ptr %0, ptr %3, align 8
  store i32 %1, ptr %4, align 4
  %5 = load ptr, ptr %3, align 8
  call void @emit_byte(ptr noundef %5, i32 noundef 255)
  %6 = load ptr, ptr %3, align 8
  %7 = load i32, ptr %4, align 4
  call void @emit_byte(ptr noundef %6, i32 noundef %7)
  ret void
}

; Function Attrs: nounwind uwtable
define internal void @write_tables_only(ptr noundef %0) #0 {
  %2 = alloca ptr, align 8
  %3 = alloca i32, align 4
  %4 = alloca i32, align 4
  %5 = alloca ptr, align 8
  store ptr %0, ptr %2, align 8
  %6 = load ptr, ptr %2, align 8
  call void @emit_marker(ptr noundef %6, i32 noundef 216)
  %7 = load ptr, ptr %2, align 8
  %8 = getelementptr inbounds %struct.jpeg_compress_struct, ptr %7, i32 0, i32 13
  %9 = load i32, ptr %8, align 4
  %10 = icmp sgt i32 %9, 0
  br i1 %10, label %11, label %33

11:                                               ; preds = %1
  store i32 0, ptr %4, align 4
  %12 = load ptr, ptr %2, align 8
  %13 = getelementptr inbounds %struct.jpeg_compress_struct, ptr %12, i32 0, i32 15
  %14 = load ptr, ptr %13, align 8
  store ptr %14, ptr %5, align 8
  br label %15

15:                                               ; preds = %27, %11
  %16 = load i32, ptr %4, align 4
  %17 = load ptr, ptr %2, align 8
  %18 = getelementptr inbounds %struct.jpeg_compress_struct, ptr %17, i32 0, i32 13
  %19 = load i32, ptr %18, align 4
  %20 = icmp slt i32 %16, %19
  br i1 %20, label %21, label %32

21:                                               ; preds = %15
  %22 = load ptr, ptr %2, align 8
  %23 = load ptr, ptr %5, align 8
  %24 = getelementptr inbounds %struct.jpeg_component_info, ptr %23, i32 0, i32 4
  %25 = load i32, ptr %24, align 8
  %26 = call i32 @emit_dqt(ptr noundef %22, i32 noundef %25)
  br label %27

27:                                               ; preds = %21
  %28 = load i32, ptr %4, align 4
  %29 = add nsw i32 %28, 1
  store i32 %29, ptr %4, align 4
  %30 = load ptr, ptr %5, align 8
  %31 = getelementptr inbounds %struct.jpeg_component_info, ptr %30, i32 1
  store ptr %31, ptr %5, align 8
  br label %15, !llvm.loop !10

32:                                               ; preds = %15
  br label %54

33:                                               ; preds = %1
  store i32 0, ptr %3, align 4
  br label %34

34:                                               ; preds = %50, %33
  %35 = load i32, ptr %3, align 4
  %36 = icmp slt i32 %35, 4
  br i1 %36, label %37, label %53

37:                                               ; preds = %34
  %38 = load ptr, ptr %2, align 8
  %39 = getelementptr inbounds %struct.jpeg_compress_struct, ptr %38, i32 0, i32 16
  %40 = load i32, ptr %3, align 4
  %41 = sext i32 %40 to i64
  %42 = getelementptr inbounds [4 x ptr], ptr %39, i64 0, i64 %41
  %43 = load ptr, ptr %42, align 8
  %44 = icmp ne ptr %43, null
  br i1 %44, label %45, label %49

45:                                               ; preds = %37
  %46 = load ptr, ptr %2, align 8
  %47 = load i32, ptr %3, align 4
  %48 = call i32 @emit_dqt(ptr noundef %46, i32 noundef %47)
  br label %49

49:                                               ; preds = %45, %37
  br label %50

50:                                               ; preds = %49
  %51 = load i32, ptr %3, align 4
  %52 = add nsw i32 %51, 1
  store i32 %52, ptr %3, align 4
  br label %34, !llvm.loop !11

53:                                               ; preds = %34
  br label %54

54:                                               ; preds = %53, %32
  %55 = load ptr, ptr %2, align 8
  %56 = getelementptr inbounds %struct.jpeg_compress_struct, ptr %55, i32 0, i32 25
  %57 = load i32, ptr %56, align 4
  %58 = icmp ne i32 %57, 0
  br i1 %58, label %90, label %59

59:                                               ; preds = %54
  store i32 0, ptr %3, align 4
  br label %60

60:                                               ; preds = %86, %59
  %61 = load i32, ptr %3, align 4
  %62 = icmp slt i32 %61, 4
  br i1 %62, label %63, label %89

63:                                               ; preds = %60
  %64 = load ptr, ptr %2, align 8
  %65 = getelementptr inbounds %struct.jpeg_compress_struct, ptr %64, i32 0, i32 17
  %66 = load i32, ptr %3, align 4
  %67 = sext i32 %66 to i64
  %68 = getelementptr inbounds [4 x ptr], ptr %65, i64 0, i64 %67
  %69 = load ptr, ptr %68, align 8
  %70 = icmp ne ptr %69, null
  br i1 %70, label %71, label %74

71:                                               ; preds = %63
  %72 = load ptr, ptr %2, align 8
  %73 = load i32, ptr %3, align 4
  call void @emit_dht(ptr noundef %72, i32 noundef %73, i32 noundef 0)
  br label %74

74:                                               ; preds = %71, %63
  %75 = load ptr, ptr %2, align 8
  %76 = getelementptr inbounds %struct.jpeg_compress_struct, ptr %75, i32 0, i32 18
  %77 = load i32, ptr %3, align 4
  %78 = sext i32 %77 to i64
  %79 = getelementptr inbounds [4 x ptr], ptr %76, i64 0, i64 %78
  %80 = load ptr, ptr %79, align 8
  %81 = icmp ne ptr %80, null
  br i1 %81, label %82, label %85

82:                                               ; preds = %74
  %83 = load ptr, ptr %2, align 8
  %84 = load i32, ptr %3, align 4
  call void @emit_dht(ptr noundef %83, i32 noundef %84, i32 noundef 1)
  br label %85

85:                                               ; preds = %82, %74
  br label %86

86:                                               ; preds = %85
  %87 = load i32, ptr %3, align 4
  %88 = add nsw i32 %87, 1
  store i32 %88, ptr %3, align 4
  br label %60, !llvm.loop !12

89:                                               ; preds = %60
  br label %90

90:                                               ; preds = %89, %54
  %91 = load ptr, ptr %2, align 8
  call void @emit_marker(ptr noundef %91, i32 noundef 217)
  ret void
}