; Function Attrs: nounwind uwtable
define internal void @write_tables_only(ptr noundef %0) #0 {
  %2 = getelementptr inbounds i8, ptr %0, i64 40
  %3 = load ptr, ptr %2, align 8
  %4 = load ptr, ptr %3, align 8
  %5 = getelementptr inbounds i8, ptr %4, i64 1
  store ptr %5, ptr %3, align 8
  store i8 -1, ptr %4, align 1
  %6 = getelementptr inbounds i8, ptr %3, i64 8
  %7 = load i64, ptr %6, align 8
  %8 = add i64 %7, -1
  store i64 %8, ptr %6, align 8
  %9 = icmp eq i64 %8, 0
  br i1 %9, label %10, label %emit_byte.exit.i

10:                                               ; preds = %1
  %11 = getelementptr inbounds i8, ptr %3, i64 24
  %12 = load ptr, ptr %11, align 8
  %13 = tail call i32 %12(ptr noundef nonnull %0) #1
  %.not.i.i = icmp eq i32 %13, 0
  br i1 %.not.i.i, label %14, label %emit_byte.exit.i

14:                                               ; preds = %10
  %15 = load ptr, ptr %0, align 8
  %16 = getelementptr inbounds i8, ptr %15, i64 40
  store i32 24, ptr %16, align 8
  %17 = load ptr, ptr %0, align 8
  %18 = load ptr, ptr %17, align 8
  tail call void %18(ptr noundef nonnull %0) #1
  br label %emit_byte.exit.i

emit_byte.exit.i:                                 ; preds = %14, %10, %1
  %19 = load ptr, ptr %2, align 8
  %20 = load ptr, ptr %19, align 8
  %21 = getelementptr inbounds i8, ptr %20, i64 1
  store ptr %21, ptr %19, align 8
  store i8 -40, ptr %20, align 1
  %22 = getelementptr inbounds i8, ptr %19, i64 8
  %23 = load i64, ptr %22, align 8
  %24 = add i64 %23, -1
  store i64 %24, ptr %22, align 8
  %25 = icmp eq i64 %24, 0
  br i1 %25, label %26, label %emit_marker.exit

26:                                               ; preds = %emit_byte.exit.i
  %27 = getelementptr inbounds i8, ptr %19, i64 24
  %28 = load ptr, ptr %27, align 8
  %29 = tail call i32 %28(ptr noundef nonnull %0) #1
  %.not.i2.i = icmp eq i32 %29, 0
  br i1 %.not.i2.i, label %30, label %emit_marker.exit

30:                                               ; preds = %26
  %31 = load ptr, ptr %0, align 8
  %32 = getelementptr inbounds i8, ptr %31, i64 40
  store i32 24, ptr %32, align 8
  %33 = load ptr, ptr %0, align 8
  %34 = load ptr, ptr %33, align 8
  tail call void %34(ptr noundef nonnull %0) #1
  br label %emit_marker.exit

emit_marker.exit:                                 ; preds = %emit_byte.exit.i, %26, %30
  %35 = getelementptr inbounds i8, ptr %0, i64 76
  %36 = load i32, ptr %35, align 4
  %37 = icmp sgt i32 %36, 0
  br i1 %37, label %.lr.ph.preheader, label %.preheader36

.preheader36:                                     ; preds = %emit_marker.exit
  %38 = getelementptr inbounds i8, ptr %0, i64 96
  br label %48

.lr.ph.preheader:                                 ; preds = %emit_marker.exit
  %39 = getelementptr inbounds i8, ptr %0, i64 88
  %40 = load ptr, ptr %39, align 8
  br label %.lr.ph

.lr.ph:                                           ; preds = %.lr.ph.preheader, %.lr.ph
  %.040 = phi ptr [ %45, %.lr.ph ], [ %40, %.lr.ph.preheader ]
  %.02639 = phi i32 [ %44, %.lr.ph ], [ 0, %.lr.ph.preheader ]
  %41 = getelementptr inbounds i8, ptr %.040, i64 16
  %42 = load i32, ptr %41, align 8
  %43 = tail call fastcc i32 @emit_dqt(ptr noundef nonnull %0, i32 noundef %42)
  %44 = add nuw nsw i32 %.02639, 1
  %45 = getelementptr inbounds i8, ptr %.040, i64 96
  %46 = load i32, ptr %35, align 4
  %47 = icmp slt i32 %44, %46
  br i1 %47, label %.lr.ph, label %.loopexit35, !llvm.loop !11

48:                                               ; preds = %.preheader36, %54
  %indvars.iv = phi i64 [ 0, %.preheader36 ], [ %indvars.iv.next, %54 ]
  %49 = getelementptr inbounds [4 x ptr], ptr %38, i64 0, i64 %indvars.iv
  %50 = load ptr, ptr %49, align 8
  %.not = icmp eq ptr %50, null
  br i1 %.not, label %54, label %51

51:                                               ; preds = %48
  %52 = trunc nuw nsw i64 %indvars.iv to i32
  %53 = tail call fastcc i32 @emit_dqt(ptr noundef nonnull %0, i32 noundef %52)
  br label %54

54:                                               ; preds = %48, %51
  %indvars.iv.next = add nuw nsw i64 %indvars.iv, 1
  %exitcond.not = icmp eq i64 %indvars.iv.next, 4
  br i1 %exitcond.not, label %.loopexit35, label %48, !llvm.loop !12

.loopexit35:                                      ; preds = %54, %.lr.ph
  %55 = getelementptr inbounds i8, ptr %0, i64 260
  %56 = load i32, ptr %55, align 4
  %.not28 = icmp eq i32 %56, 0
  br i1 %.not28, label %.preheader, label %.loopexit

.preheader:                                       ; preds = %.loopexit35
  %57 = getelementptr inbounds i8, ptr %0, i64 128
  %58 = getelementptr inbounds i8, ptr %0, i64 160
  br label %59

59:                                               ; preds = %.preheader, %69
  %indvars.iv44 = phi i64 [ 0, %.preheader ], [ %indvars.iv.next45, %69 ]
  %60 = getelementptr inbounds [4 x ptr], ptr %57, i64 0, i64 %indvars.iv44
  %61 = load ptr, ptr %60, align 8
  %.not29 = icmp eq ptr %61, null
  br i1 %.not29, label %64, label %62

62:                                               ; preds = %59
  %63 = trunc nuw nsw i64 %indvars.iv44 to i32
  tail call fastcc void @emit_dht(ptr noundef nonnull %0, i32 noundef %63, i32 noundef 0)
  br label %64

64:                                               ; preds = %62, %59
  %65 = getelementptr inbounds [4 x ptr], ptr %58, i64 0, i64 %indvars.iv44
  %66 = load ptr, ptr %65, align 8
  %.not30 = icmp eq ptr %66, null
  br i1 %.not30, label %69, label %67

67:                                               ; preds = %64
  %68 = trunc nuw nsw i64 %indvars.iv44 to i32
  tail call fastcc void @emit_dht(ptr noundef nonnull %0, i32 noundef %68, i32 noundef 1)
  br label %69

69:                                               ; preds = %64, %67
  %indvars.iv.next45 = add nuw nsw i64 %indvars.iv44, 1
  %exitcond47.not = icmp eq i64 %indvars.iv.next45, 4
  br i1 %exitcond47.not, label %.loopexit, label %59, !llvm.loop !13

.loopexit:                                        ; preds = %69, %.loopexit35
  %70 = load ptr, ptr %2, align 8
  %71 = load ptr, ptr %70, align 8
  %72 = getelementptr inbounds i8, ptr %71, i64 1
  store ptr %72, ptr %70, align 8
  store i8 -1, ptr %71, align 1
  %73 = getelementptr inbounds i8, ptr %70, i64 8
  %74 = load i64, ptr %73, align 8
  %75 = add i64 %74, -1
  store i64 %75, ptr %73, align 8
  %76 = icmp eq i64 %75, 0
  br i1 %76, label %77, label %emit_byte.exit.i31

77:                                               ; preds = %.loopexit
  %78 = getelementptr inbounds i8, ptr %70, i64 24
  %79 = load ptr, ptr %78, align 8
  %80 = tail call i32 %79(ptr noundef nonnull %0) #1
  %.not.i.i33 = icmp eq i32 %80, 0
  br i1 %.not.i.i33, label %81, label %emit_byte.exit.i31

81:                                               ; preds = %77
  %82 = load ptr, ptr %0, align 8
  %83 = getelementptr inbounds i8, ptr %82, i64 40
  store i32 24, ptr %83, align 8
  %84 = load ptr, ptr %0, align 8
  %85 = load ptr, ptr %84, align 8
  tail call void %85(ptr noundef nonnull %0) #1
  br label %emit_byte.exit.i31

emit_byte.exit.i31:                               ; preds = %81, %77, %.loopexit
  %86 = load ptr, ptr %2, align 8
  %87 = load ptr, ptr %86, align 8
  %88 = getelementptr inbounds i8, ptr %87, i64 1
  store ptr %88, ptr %86, align 8
  store i8 -39, ptr %87, align 1
  %89 = getelementptr inbounds i8, ptr %86, i64 8
  %90 = load i64, ptr %89, align 8
  %91 = add i64 %90, -1
  store i64 %91, ptr %89, align 8
  %92 = icmp eq i64 %91, 0
  br i1 %92, label %93, label %emit_marker.exit34

93:                                               ; preds = %emit_byte.exit.i31
  %94 = getelementptr inbounds i8, ptr %86, i64 24
  %95 = load ptr, ptr %94, align 8
  %96 = tail call i32 %95(ptr noundef nonnull %0) #1
  %.not.i2.i32 = icmp eq i32 %96, 0
  br i1 %.not.i2.i32, label %97, label %emit_marker.exit34

97:                                               ; preds = %93
  %98 = load ptr, ptr %0, align 8
  %99 = getelementptr inbounds i8, ptr %98, i64 40
  store i32 24, ptr %99, align 8
  %100 = load ptr, ptr %0, align 8
  %101 = load ptr, ptr %100, align 8
  tail call void %101(ptr noundef nonnull %0) #1
  br label %emit_marker.exit34

emit_marker.exit34:                               ; preds = %emit_byte.exit.i31, %93, %97
  ret void
}